target datalayout = "e-m:e-p270:32:32-p271:32:32-p272:64:64-i64:64-i128:128-f80:128-n8:16:32:64-S128"
target triple = "x86_64-pc-linux-gnu"

%struct.Gia_Man_t_ = type { ptr, ptr, i32, i32, i32, i32, ptr, ptr, i32, i32, i32, ptr, ptr, %struct.Vec_Int_t_, %struct.Vec_Int_t_, i32, i32, i32, %struct.Vec_Int_t_, ptr, ptr, ptr, i32, i32, i32, i32, ptr, ptr, ptr, ptr, ptr, i32, i32, ptr, i32, ptr, ptr, ptr, ptr, ptr, ptr, ptr, ptr, ptr, ptr, ptr, ptr, ptr, ptr, ptr, ptr, ptr, ptr, %struct.Vec_Int_t_, %struct.Vec_Int_t_, ptr, ptr, ptr, ptr, ptr, ptr, ptr, ptr, ptr, ptr, ptr, ptr, ptr, ptr, ptr, ptr, ptr, ptr, ptr, ptr, ptr, i32, float, float, ptr, ptr, i32, ptr, ptr, ptr, ptr, ptr, ptr, ptr, ptr, ptr, ptr, ptr, ptr, ptr, ptr, ptr, i64, i64, ptr, ptr, i32, i32, i32, i32, i32, i32, i32, i32, i32, i32, i32, i32, ptr, ptr, ptr, ptr, ptr, ptr, ptr, ptr, i32, i32, i32, ptr, i32, i32, ptr, ptr, ptr, ptr, ptr, ptr, i32, i32, ptr, %struct.Vec_Int_t_, %struct.Vec_Int_t_, %struct.Vec_Int_t_, ptr, ptr, ptr, i32, i32, i32, i32, ptr, ptr, ptr, ptr, ptr }
%struct.Vec_Int_t_ = type { i32, i32, ptr }

@.str = private unnamed_addr constant [93 x i8] c"Gia_ManPrintFlopClasses(): The number of flop map entries differs from the number of flops.\0A\00", align 1
@.str.1 = private unnamed_addr constant [74 x i8] c"Flop-level abstraction:  Excluded FFs = %d  Included FFs = %d  (%.2f %%) \00", align 1
@.str.2 = private unnamed_addr constant [34 x i8] c"and there are other FF classes...\00", align 1
@.str.3 = private unnamed_addr constant [2 x i8] c"\0A\00", align 1

; Function Attrs: inlinehint nounwind uwtable
define internal i32 @Vec_IntCountEntry(ptr noundef %0, i32 noundef %1) #1 {
  %3 = alloca ptr, align 8
  %4 = alloca i32, align 4
  %5 = alloca i32, align 4
  %6 = alloca i32, align 4
  store ptr %0, ptr %3, align 8, !tbaa !13
  store i32 %1, ptr %4, align 4, !tbaa !15
  call void @llvm.lifetime.start.p0(i64 4, ptr %5) #10
  call void @llvm.lifetime.start.p0(i64 4, ptr %6) #10
  store i32 0, ptr %6, align 4, !tbaa !15
  store i32 0, ptr %5, align 4, !tbaa !15
  br label %7

7:                                                ; preds = %26, %2
  %8 = load i32, ptr %5, align 4, !tbaa !15
  %9 = load ptr, ptr %3, align 8, !tbaa !13
  %10 = getelementptr inbounds nuw %struct.Vec_Int_t_, ptr %9, i32 0, i32 1
  %11 = load i32, ptr %10, align 4, !tbaa !49
  %12 = icmp slt i32 %8, %11
  br i1 %12, label %13, label %29

13:                                               ; preds = %7
  %14 = load ptr, ptr %3, align 8, !tbaa !13
  %15 = getelementptr inbounds nuw %struct.Vec_Int_t_, ptr %14, i32 0, i32 2
  %16 = load ptr, ptr %15, align 8, !tbaa !45
  %17 = load i32, ptr %5, align 4, !tbaa !15
  %18 = sext i32 %17 to i64
  %19 = getelementptr inbounds i32, ptr %16, i64 %18
  %20 = load i32, ptr %19, align 4, !tbaa !15
  %21 = load i32, ptr %4, align 4, !tbaa !15
  %22 = icmp eq i32 %20, %21
  %23 = zext i1 %22 to i32
  %24 = load i32, ptr %6, align 4, !tbaa !15
  %25 = add nsw i32 %24, %23
  store i32 %25, ptr %6, align 4, !tbaa !15
  br label %26

26:                                               ; preds = %13
  %27 = load i32, ptr %5, align 4, !tbaa !15
  %28 = add nsw i32 %27, 1
  store i32 %28, ptr %5, align 4, !tbaa !15
  br label %7, !llvm.loop !67

29:                                               ; preds = %7
  %30 = load i32, ptr %6, align 4, !tbaa !15
  call void @llvm.lifetime.end.p0(i64 4, ptr %6) #10
  call void @llvm.lifetime.end.p0(i64 4, ptr %5) #10
  ret i32 %30
}

; Function Attrs: inlinehint nounwind uwtable
define internal i32 @Gia_ManRegNum(ptr noundef %0) #1 {
  %2 = alloca ptr, align 8
  store ptr %0, ptr %2, align 8, !tbaa !3
  %3 = load ptr, ptr %2, align 8, !tbaa !3
  %4 = getelementptr inbounds nuw %struct.Gia_Man_t_, ptr %3, i32 0, i32 2
  %5 = load i32, ptr %4, align 8, !tbaa !44
  ret i32 %5
}

; Function Attrs: inlinehint nounwind uwtable
define internal i32 @Vec_IntSize(ptr noundef %0) #1 {
  %2 = alloca ptr, align 8
  store ptr %0, ptr %2, align 8, !tbaa !13
  %3 = load ptr, ptr %2, align 8, !tbaa !13
  %4 = getelementptr inbounds nuw %struct.Vec_Int_t_, ptr %3, i32 0, i32 1
  %5 = load i32, ptr %4, align 4, !tbaa !49
  ret i32 %5
}

; Function Attrs: nounwind uwtable
define void @Gia_ManPrintFlopClasses(ptr noundef %0) #0 {
  %2 = alloca ptr, align 8
  %3 = alloca i32, align 4
  %4 = alloca i32, align 4
  %5 = alloca i32, align 4
  store ptr %0, ptr %2, align 8, !tbaa !3
  call void @llvm.lifetime.start.p0(i64 4, ptr %3) #10
  call void @llvm.lifetime.start.p0(i64 4, ptr %4) #10
  %6 = load ptr, ptr %2, align 8, !tbaa !3
  %7 = getelementptr inbounds nuw %struct.Gia_Man_t_, ptr %6, i32 0, i32 57
  %8 = load ptr, ptr %7, align 8, !tbaa !66
  %9 = icmp eq ptr %8, null
  br i1 %9, label %10, label %11

10:                                               ; preds = %1
  store i32 1, ptr %5, align 4
  br label %52

11:                                               ; preds = %1
  %12 = load ptr, ptr %2, align 8, !tbaa !3
  %13 = getelementptr inbounds nuw %struct.Gia_Man_t_, ptr %12, i32 0, i32 57
  %14 = load ptr, ptr %13, align 8, !tbaa !66
  %15 = call i32 @Vec_IntSize(ptr noundef %14)
  %16 = load ptr, ptr %2, align 8, !tbaa !3
  %17 = call i32 @Gia_ManRegNum(ptr noundef %16)
  %18 = icmp ne i32 %15, %17
  br i1 %18, label %19, label %21

19:                                               ; preds = %11
  %20 = call i32 (ptr, ...) @printf(ptr noundef @.str)
  store i32 1, ptr %5, align 4
  br label %52

21:                                               ; preds = %11
  %22 = load ptr, ptr %2, align 8, !tbaa !3
  %23 = getelementptr inbounds nuw %struct.Gia_Man_t_, ptr %22, i32 0, i32 57
  %24 = load ptr, ptr %23, align 8, !tbaa !66
  %25 = call i32 @Vec_IntCountEntry(ptr noundef %24, i32 noundef 0)
  store i32 %25, ptr %3, align 4, !tbaa !15
  %26 = load ptr, ptr %2, align 8, !tbaa !3
  %27 = getelementptr inbounds nuw %struct.Gia_Man_t_, ptr %26, i32 0, i32 57
  %28 = load ptr, ptr %27, align 8, !tbaa !66
  %29 = call i32 @Vec_IntCountEntry(ptr noundef %28, i32 noundef 1)
  store i32 %29, ptr %4, align 4, !tbaa !15
  %30 = load i32, ptr %3, align 4, !tbaa !15
  %31 = load i32, ptr %4, align 4, !tbaa !15
  %32 = load i32, ptr %4, align 4, !tbaa !15
  %33 = sitofp i32 %32 to double
  %34 = fmul double 1.000000e+02, %33
  %35 = load i32, ptr %3, align 4, !tbaa !15
  %36 = load i32, ptr %4, align 4, !tbaa !15
  %37 = add nsw i32 %35, %36
  %38 = add nsw i32 %37, 1
  %39 = sitofp i32 %38 to double
  %40 = fdiv double %34, %39
  %41 = call i32 (ptr, ...) @printf(ptr noundef @.str.1, i32 noundef %30, i32 noundef %31, double noundef %40)
  %42 = load i32, ptr %3, align 4, !tbaa !15
  %43 = load i32, ptr %4, align 4, !tbaa !15
  %44 = add nsw i32 %42, %43
  %45 = load ptr, ptr %2, align 8, !tbaa !3
  %46 = call i32 @Gia_ManRegNum(ptr noundef %45)
  %47 = icmp slt i32 %44, %46
  br i1 %47, label %48, label %50

48:                                               ; preds = %21
  %49 = call i32 (ptr, ...) @printf(ptr noundef @.str.2)
  br label %50

50:                                               ; preds = %48, %21
  %51 = call i32 (ptr, ...) @printf(ptr noundef @.str.3)
  store i32 0, ptr %5, align 4
  br label %52

52:                                               ; preds = %50, %19, %10
  call void @llvm.lifetime.end.p0(i64 4, ptr %4) #10
  call void @llvm.lifetime.end.p0(i64 4, ptr %3) #10
  %53 = load i32, ptr %5, align 4
  switch i32 %53, label %55 [
    i32 0, label %54
    i32 1, label %54
  ]

54:                                               ; preds = %52, %52
  ret void

55:                                               ; preds = %52
  unreachable
}