; Function Attrs: nofree nounwind uwtable
define void @Gia_ManPrintFlopClasses(ptr noundef readonly captures(none) %0) local_unnamed_addr #4 {
  %2 = getelementptr inbounds nuw i8, ptr %0, i64 440
  %3 = load ptr, ptr %2, align 8, !tbaa !61
  %4 = icmp eq ptr %3, null
  br i1 %4, label %35, label %5

5:                                                ; preds = %1
  %6 = getelementptr i8, ptr %3, i64 4
  %.val = load i32, ptr %6, align 4, !tbaa !34
  %7 = getelementptr i8, ptr %0, i64 16
  %.val13 = load i32, ptr %7, align 8, !tbaa !32
  %.not = icmp eq i32 %.val, %.val13
  br i1 %.not, label %9, label %8

8:                                                ; preds = %5
  %puts = tail call i32 @puts(ptr nonnull dereferenceable(1) @str)
  br label %35

9:                                                ; preds = %5
  %10 = icmp sgt i32 %.val, 0
  br i1 %10, label %.lr.ph.i, label %Vec_IntCountEntry.exit21

.lr.ph.i:                                         ; preds = %9
  %11 = getelementptr inbounds nuw i8, ptr %3, i64 8
  %12 = load ptr, ptr %11, align 8, !tbaa !37
  %wide.trip.count.i = zext nneg i32 %.val to i64
  br label %13

13:                                               ; preds = %13, %.lr.ph.i
  %indvars.iv.i = phi i64 [ 0, %.lr.ph.i ], [ %indvars.iv.next.i, %13 ]
  %.09.i = phi i32 [ 0, %.lr.ph.i ], [ %18, %13 ]
  %14 = getelementptr inbounds nuw i32, ptr %12, i64 %indvars.iv.i
  %15 = load i32, ptr %14, align 4, !tbaa !38
  %16 = icmp eq i32 %15, 0
  %17 = zext i1 %16 to i32
  %18 = add nuw nsw i32 %.09.i, %17
  %indvars.iv.next.i = add nuw nsw i64 %indvars.iv.i, 1
  %exitcond.not.i = icmp eq i64 %indvars.iv.next.i, %wide.trip.count.i
  br i1 %exitcond.not.i, label %.lr.ph.i15, label %13, !llvm.loop !62

.lr.ph.i15:                                       ; preds = %13, %.lr.ph.i15
  %indvars.iv.i17 = phi i64 [ %indvars.iv.next.i19, %.lr.ph.i15 ], [ 0, %13 ]
  %.09.i18 = phi i32 [ %23, %.lr.ph.i15 ], [ 0, %13 ]
  %19 = getelementptr inbounds nuw i32, ptr %12, i64 %indvars.iv.i17
  %20 = load i32, ptr %19, align 4, !tbaa !38
  %21 = icmp eq i32 %20, 1
  %22 = zext i1 %21 to i32
  %23 = add nuw nsw i32 %.09.i18, %22
  %indvars.iv.next.i19 = add nuw nsw i64 %indvars.iv.i17, 1
  %exitcond.not.i20 = icmp eq i64 %indvars.iv.next.i19, %wide.trip.count.i
  br i1 %exitcond.not.i20, label %Vec_IntCountEntry.exit21, label %.lr.ph.i15, !llvm.loop !62

Vec_IntCountEntry.exit21:                         ; preds = %.lr.ph.i15, %9
  %.0.lcssa.i23 = phi i32 [ 0, %9 ], [ %18, %.lr.ph.i15 ]
  %.0.lcssa.i14 = phi i32 [ 0, %9 ], [ %23, %.lr.ph.i15 ]
  %24 = sitofp i32 %.0.lcssa.i14 to double
  %25 = fmul double %24, 1.000000e+02
  %26 = add nsw i32 %.0.lcssa.i14, %.0.lcssa.i23
  %27 = add nsw i32 %26, 1
  %28 = sitofp i32 %27 to double
  %29 = fdiv double %25, %28
  %30 = tail call i32 (ptr, ...) @printf(ptr noundef nonnull dereferenceable(1) @.str.1, i32 noundef %.0.lcssa.i23, i32 noundef %.0.lcssa.i14, double noundef %29)
  %.val12 = load i32, ptr %7, align 8, !tbaa !32
  %31 = icmp slt i32 %26, %.val12
  br i1 %31, label %32, label %34

32:                                               ; preds = %Vec_IntCountEntry.exit21
  %33 = tail call i32 (ptr, ...) @printf(ptr noundef nonnull dereferenceable(1) @.str.2)
  br label %34

34:                                               ; preds = %32, %Vec_IntCountEntry.exit21
  %putchar = tail call i32 @putchar(i32 10)
  br label %35

35:                                               ; preds = %1, %34, %8
  ret void
}